; Function Attrs: mustprogress nounwind uwtable
define hidden void @_ZN2cv6detail8tracking15online_boosting8DetectorD0Ev(ptr noundef nonnull align 8 dereferenceable(376) initializes((0, 8)) %0) unnamed_addr #8 align 2 personality ptr @__gxx_personality_v0 {
  store ptr getelementptr inbounds nuw inrange(-16, 16) (i8, ptr @_ZTVN2cv6detail8tracking15online_boosting8DetectorE, i64 16), ptr %0, align 8, !tbaa !3
  %2 = getelementptr inbounds nuw i8, ptr %0, i64 280
  tail call void @_ZN2cv3MatD2Ev(ptr noundef nonnull align 8 dereferenceable(96) %2) #24
  %3 = getelementptr inbounds nuw i8, ptr %0, i64 184
  tail call void @_ZN2cv3MatD2Ev(ptr noundef nonnull align 8 dereferenceable(96) %3) #24
  %4 = getelementptr inbounds nuw i8, ptr %0, i64 88
  tail call void @_ZN2cv3MatD2Ev(ptr noundef nonnull align 8 dereferenceable(96) %4) #24
  %5 = getelementptr inbounds nuw i8, ptr %0, i64 48
  %6 = load ptr, ptr %5, align 8, !tbaa !108
  %.not.i.i.i.i = icmp eq ptr %6, null
  br i1 %.not.i.i.i.i, label %_ZNSt6vectorIiSaIiEED2Ev.exit.i, label %7

7:                                                ; preds = %1
  tail call void @_ZdlPv(ptr noundef nonnull %6) #26
  br label %_ZNSt6vectorIiSaIiEED2Ev.exit.i

_ZNSt6vectorIiSaIiEED2Ev.exit.i:                  ; preds = %7, %1
  %8 = getelementptr inbounds nuw i8, ptr %0, i64 16
  %9 = load ptr, ptr %8, align 8, !tbaa !38
  %.not.i.i.i1.i = icmp eq ptr %9, null
  br i1 %.not.i.i.i1.i, label %_ZN2cv6detail8tracking15online_boosting8DetectorD2Ev.exit, label %10

10:                                               ; preds = %_ZNSt6vectorIiSaIiEED2Ev.exit.i
  tail call void @_ZdlPv(ptr noundef nonnull %9) #26
  br label %_ZN2cv6detail8tracking15online_boosting8DetectorD2Ev.exit

_ZN2cv6detail8tracking15online_boosting8DetectorD2Ev.exit: ; preds = %_ZNSt6vectorIiSaIiEED2Ev.exit.i, %10
  tail call void @_ZdlPv(ptr noundef nonnull %0) #26
  ret void
}